	.text
	.syntax unified
	.eabi_attribute	67, "2.09"	@ Tag_conformance
	.cpu	cortex-m3
	.eabi_attribute	6, 10	@ Tag_CPU_arch
	.eabi_attribute	7, 77	@ Tag_CPU_arch_profile
	.eabi_attribute	8, 0	@ Tag_ARM_ISA_use
	.eabi_attribute	9, 2	@ Tag_THUMB_ISA_use
	.eabi_attribute	34, 1	@ Tag_CPU_unaligned_access
	.eabi_attribute	17, 1	@ Tag_ABI_PCS_GOT_use
	.eabi_attribute	20, 2	@ Tag_ABI_FP_denormal
	.eabi_attribute	21, 0	@ Tag_ABI_FP_exceptions
	.eabi_attribute	23, 1	@ Tag_ABI_FP_number_model
	.eabi_attribute	24, 1	@ Tag_ABI_align_needed
	.eabi_attribute	25, 1	@ Tag_ABI_align_preserved
	.eabi_attribute	38, 1	@ Tag_ABI_FP_16bit_format
	.eabi_attribute	18, 2	@ Tag_ABI_PCS_wchar_t
	.eabi_attribute	26, 1	@ Tag_ABI_enum_size
	.eabi_attribute	14, 0	@ Tag_ABI_PCS_R9_use
	.file	"main.c"
	.file	1 "C:\\Keil_v5\\ARM\\ARMCLANG\\Bin\\..\\include" "stdint.h"
	.file	2 "D:\\3.Courses\\Profile\\Embedded_Automative\\Lesson_05_SPI_software_and_hardware\\SPI_Software\\Slave" "main.c"
	.file	3 "C:/Users/LENOVO/AppData/Local/Arm/Packs/Keil/STM32F1xx_DFP/2.4.1/Device/Include" "stm32f10x.h"
	.file	4 "C:/Users/LENOVO/AppData/Local/Arm/Packs/Keil/STM32F1xx_DFP/2.4.1/Device/StdPeriph_Driver/inc" "stm32f10x_gpio.h"
	.section	.text.RCC_Config,"ax",%progbits
	.hidden	RCC_Config                      @ -- Begin function RCC_Config
	.globl	RCC_Config
	.p2align	2
	.type	RCC_Config,%function
	.code	16                              @ @RCC_Config
	.thumb_func
RCC_Config:
.Lfunc_begin0:
	.loc	2 13 0                          @ main.c:13:0
	.fnstart
	.cfi_sections .debug_frame
	.cfi_startproc
@ %bb.0:
	.save	{r7, lr}
	push	{r7, lr}
	.cfi_def_cfa_offset 8
	.cfi_offset lr, -4
	.cfi_offset r7, -8
	.pad	#8
	sub	sp, #8
	.cfi_def_cfa_offset 16
	movs	r0, #4
	movs	r1, #1
.Ltmp0:
	.loc	2 14 3 prologue_end             @ main.c:14:3
	str	r1, [sp, #4]                    @ 4-byte Spill
	bl	RCC_APB2PeriphClockCmd
	ldr	r1, [sp, #4]                    @ 4-byte Reload
	.loc	2 15 3                          @ main.c:15:3
	mov	r0, r1
	bl	RCC_APB1PeriphClockCmd
	.loc	2 16 1 epilogue_begin           @ main.c:16:1
	add	sp, #8
	pop	{r7, pc}
.Ltmp1:
.Lfunc_end0:
	.size	RCC_Config, .Lfunc_end0-RCC_Config
	.cfi_endproc
	.cantunwind
	.fnend
                                        @ -- End function
	.section	.text.GPIO_Config,"ax",%progbits
	.hidden	GPIO_Config                     @ -- Begin function GPIO_Config
	.globl	GPIO_Config
	.p2align	2
	.type	GPIO_Config,%function
	.code	16                              @ @GPIO_Config
	.thumb_func
GPIO_Config:
.Lfunc_begin1:
	.loc	2 18 0                          @ main.c:18:0
	.fnstart
	.cfi_startproc
@ %bb.0:
	.save	{r7, lr}
	push	{r7, lr}
	.cfi_def_cfa_offset 8
	.cfi_offset lr, -4
	.cfi_offset r7, -8
	.pad	#16
	sub	sp, #16
	.cfi_def_cfa_offset 24
	movs	r0, #176
.Ltmp2:
	.loc	2 20 30 prologue_end            @ main.c:20:30
	strh.w	r0, [sp, #12]
	movs	r0, #4
	.loc	2 21 31                         @ main.c:21:31
	strb.w	r0, [sp, #15]
	movs	r0, #3
	.loc	2 22 32                         @ main.c:22:32
	strb.w	r0, [sp, #14]
	movw	r0, #2048
	movt	r0, #16385
	str	r0, [sp, #4]                    @ 4-byte Spill
	add	r1, sp, #12
	.loc	2 23 2                          @ main.c:23:2
	str	r1, [sp, #8]                    @ 4-byte Spill
	bl	GPIO_Init
	ldr	r0, [sp, #4]                    @ 4-byte Reload
	ldr	r1, [sp, #8]                    @ 4-byte Reload
	movs	r2, #64
	.loc	2 25 30                         @ main.c:25:30
	strh.w	r2, [sp, #12]
	movs	r2, #16
	.loc	2 26 31                         @ main.c:26:31
	strb.w	r2, [sp, #15]
	.loc	2 27 2                          @ main.c:27:2
	bl	GPIO_Init
	.loc	2 28 1 epilogue_begin           @ main.c:28:1
	add	sp, #16
	pop	{r7, pc}
.Ltmp3:
.Lfunc_end1:
	.size	GPIO_Config, .Lfunc_end1-GPIO_Config
	.cfi_endproc
	.cantunwind
	.fnend
                                        @ -- End function
	.section	.text.TIM_Config,"ax",%progbits
	.hidden	TIM_Config                      @ -- Begin function TIM_Config
	.globl	TIM_Config
	.p2align	2
	.type	TIM_Config,%function
	.code	16                              @ @TIM_Config
	.thumb_func
TIM_Config:
.Lfunc_begin2:
	.loc	2 31 0                          @ main.c:31:0
	.fnstart
	.cfi_startproc
@ %bb.0:
	.save	{r7, lr}
	push	{r7, lr}
	.cfi_def_cfa_offset 8
	.cfi_offset lr, -4
	.cfi_offset r7, -8
	.pad	#16
	sub	sp, #16
	.cfi_def_cfa_offset 24
	movs	r0, #0
.Ltmp4:
	.loc	2 34 35 prologue_end            @ main.c:34:35
	strh.w	r0, [sp, #12]
	.loc	2 35 34                         @ main.c:35:34
	strh.w	r0, [sp, #8]
	movw	r0, #65535
	.loc	2 36 32                         @ main.c:36:32
	strh.w	r0, [sp, #10]
	movw	r0, #7199
	.loc	2 37 33                         @ main.c:37:33
	strh.w	r0, [sp, #6]
	mov.w	r0, #1073741824
	str	r0, [sp]                        @ 4-byte Spill
	add.w	r1, sp, #6
	.loc	2 39 2                          @ main.c:39:2
	bl	TIM_TimeBaseInit
	ldr	r0, [sp]                        @ 4-byte Reload
	movs	r1, #1
	.loc	2 40 2                          @ main.c:40:2
	bl	TIM_Cmd
	.loc	2 41 1 epilogue_begin           @ main.c:41:1
	add	sp, #16
	pop	{r7, pc}
.Ltmp5:
.Lfunc_end2:
	.size	TIM_Config, .Lfunc_end2-TIM_Config
	.cfi_endproc
	.cantunwind
	.fnend
                                        @ -- End function
	.section	.text.delay_us,"ax",%progbits
	.hidden	delay_us                        @ -- Begin function delay_us
	.globl	delay_us
	.p2align	2
	.type	delay_us,%function
	.code	16                              @ @delay_us
	.thumb_func
delay_us:
.Lfunc_begin3:
	.loc	2 43 0                          @ main.c:43:0
	.fnstart
	.cfi_startproc
@ %bb.0:
	.save	{r7, lr}
	push	{r7, lr}
	.cfi_def_cfa_offset 8
	.cfi_offset lr, -4
	.cfi_offset r7, -8
	.pad	#8
	sub	sp, #8
	.cfi_def_cfa_offset 16
	str	r0, [sp, #4]
	mov.w	r0, #1073741824
	movs	r1, #0
.Ltmp6:
	.loc	2 44 2 prologue_end             @ main.c:44:2
	bl	TIM_SetCounter
	.loc	2 45 2                          @ main.c:45:2
	b	.LBB3_1
.LBB3_1:                                @ =>This Inner Loop Header: Depth=1
	.loc	2 0 2 is_stmt 0                 @ main.c:0:2
	mov.w	r0, #1073741824
	.loc	2 45 8                          @ main.c:45:8
	bl	TIM_GetCounter
	.loc	2 45 31                         @ main.c:45:31
	ldr	r1, [sp, #4]
	.loc	2 45 35                         @ main.c:45:35
	add.w	r1, r1, r1, lsl #2
	.loc	2 45 2                          @ main.c:45:2
	cmp.w	r0, r1, lsl #1
	bhs	.LBB3_3
	b	.LBB3_2
.LBB3_2:                                @   in Loop: Header=BB3_1 Depth=1
	b	.LBB3_1
.LBB3_3:
	.loc	2 46 1 epilogue_begin is_stmt 1 @ main.c:46:1
	add	sp, #8
	pop	{r7, pc}
.Ltmp7:
.Lfunc_end3:
	.size	delay_us, .Lfunc_end3-delay_us
	.cfi_endproc
	.cantunwind
	.fnend
                                        @ -- End function
	.section	.text.SPI_Slave_Receive,"ax",%progbits
	.hidden	SPI_Slave_Receive               @ -- Begin function SPI_Slave_Receive
	.globl	SPI_Slave_Receive
	.p2align	2
	.type	SPI_Slave_Receive,%function
	.code	16                              @ @SPI_Slave_Receive
	.thumb_func
SPI_Slave_Receive:
.Lfunc_begin4:
	.loc	2 48 0                          @ main.c:48:0
	.fnstart
	.cfi_startproc
@ %bb.0:
	.save	{r7, lr}
	push	{r7, lr}
	.cfi_def_cfa_offset 8
	.cfi_offset lr, -4
	.cfi_offset r7, -8
	.pad	#8
	sub	sp, #8
	.cfi_def_cfa_offset 16
	movs	r0, #0
.Ltmp8:
	.loc	2 49 13 prologue_end            @ main.c:49:13
	strb.w	r0, [sp, #7]
	.loc	2 50 13                         @ main.c:50:13
	strb.w	r0, [sp, #6]
	.loc	2 52 5                          @ main.c:52:5
	b	.LBB4_1
.LBB4_1:                                @ =>This Inner Loop Header: Depth=1
	.loc	2 0 5 is_stmt 0                 @ main.c:0:5
	movw	r0, #2048
	movt	r0, #16385
	movs	r1, #16
	.loc	2 52 12                         @ main.c:52:12
	bl	GPIO_ReadInputDataBit
	.loc	2 52 5                          @ main.c:52:5
	cbz	r0, .LBB4_3
	b	.LBB4_2
.LBB4_2:                                @   in Loop: Header=BB4_1 Depth=1
	b	.LBB4_1
.LBB4_3:
	.loc	2 0 5                           @ main.c:0:5
	movs	r0, #0
.Ltmp9:
	.loc	2 54 14 is_stmt 1               @ main.c:54:14
	str	r0, [sp]
	.loc	2 54 10 is_stmt 0               @ main.c:54:10
	b	.LBB4_4
.LBB4_4:                                @ =>This Loop Header: Depth=1
                                        @     Child Loop BB4_6 Depth 2
                                        @     Child Loop BB4_9 Depth 2
.Ltmp10:
	.loc	2 54 21                         @ main.c:54:21
	ldr	r0, [sp]
.Ltmp11:
	.loc	2 54 5                          @ main.c:54:5
	cmp	r0, #7
	bgt	.LBB4_13
	b	.LBB4_5
.LBB4_5:                                @   in Loop: Header=BB4_4 Depth=1
.Ltmp12:
	.loc	2 56 9 is_stmt 1                @ main.c:56:9
	b	.LBB4_6
.LBB4_6:                                @   Parent Loop BB4_4 Depth=1
                                        @ =>  This Inner Loop Header: Depth=2
	.loc	2 0 9 is_stmt 0                 @ main.c:0:9
	movw	r0, #2048
	movt	r0, #16385
	movs	r1, #32
	.loc	2 56 17                         @ main.c:56:17
	bl	GPIO_ReadInputDataBit
	.loc	2 56 9                          @ main.c:56:9
	cbnz	r0, .LBB4_8
	b	.LBB4_7
.LBB4_7:                                @   in Loop: Header=BB4_6 Depth=2
	b	.LBB4_6
.LBB4_8:                                @   in Loop: Header=BB4_4 Depth=1
	.loc	2 0 9                           @ main.c:0:9
	movw	r0, #2048
	movt	r0, #16385
	movs	r1, #128
	.loc	2 58 16 is_stmt 1               @ main.c:58:16
	bl	GPIO_ReadInputDataBit
	.loc	2 58 14 is_stmt 0               @ main.c:58:14
	strb.w	r0, [sp, #6]
	.loc	2 60 24 is_stmt 1               @ main.c:60:24
	ldrb.w	r1, [sp, #7]
	.loc	2 60 44 is_stmt 0               @ main.c:60:44
	ldrb.w	r0, [sp, #6]
	.loc	2 60 42                         @ main.c:60:42
	orr.w	r0, r0, r1, lsl #1
	.loc	2 60 21                         @ main.c:60:21
	strb.w	r0, [sp, #7]
	.loc	2 62 9 is_stmt 1                @ main.c:62:9
	b	.LBB4_9
.LBB4_9:                                @   Parent Loop BB4_4 Depth=1
                                        @ =>  This Inner Loop Header: Depth=2
	.loc	2 0 9 is_stmt 0                 @ main.c:0:9
	movw	r0, #2048
	movt	r0, #16385
	movs	r1, #32
	.loc	2 62 16                         @ main.c:62:16
	bl	GPIO_ReadInputDataBit
	.loc	2 62 9                          @ main.c:62:9
	cbz	r0, .LBB4_11
	b	.LBB4_10
.LBB4_10:                               @   in Loop: Header=BB4_9 Depth=2
	b	.LBB4_9
.LBB4_11:                               @   in Loop: Header=BB4_4 Depth=1
	.loc	2 63 5 is_stmt 1                @ main.c:63:5
	b	.LBB4_12
.Ltmp13:
.LBB4_12:                               @   in Loop: Header=BB4_4 Depth=1
	.loc	2 54 29                         @ main.c:54:29
	ldr	r0, [sp]
	adds	r0, #1
	str	r0, [sp]
	.loc	2 54 5 is_stmt 0                @ main.c:54:5
	b	.LBB4_4
.Ltmp14:
.LBB4_13:
	.loc	2 65 5 is_stmt 1                @ main.c:65:5
	b	.LBB4_14
.LBB4_14:                               @ =>This Inner Loop Header: Depth=1
	.loc	2 0 5 is_stmt 0                 @ main.c:0:5
	movw	r0, #2048
	movt	r0, #16385
	movs	r1, #16
	.loc	2 65 13                         @ main.c:65:13
	bl	GPIO_ReadInputDataBit
	.loc	2 65 5                          @ main.c:65:5
	cbnz	r0, .LBB4_16
	b	.LBB4_15
.LBB4_15:                               @   in Loop: Header=BB4_14 Depth=1
	b	.LBB4_14
.LBB4_16:
	.loc	2 67 12 is_stmt 1               @ main.c:67:12
	ldrb.w	r0, [sp, #7]
	.loc	2 67 5 epilogue_begin is_stmt 0 @ main.c:67:5
	add	sp, #8
	pop	{r7, pc}
.Ltmp15:
.Lfunc_end4:
	.size	SPI_Slave_Receive, .Lfunc_end4-SPI_Slave_Receive
	.cfi_endproc
	.cantunwind
	.fnend
                                        @ -- End function
	.section	.text.main,"ax",%progbits
	.hidden	main                            @ -- Begin function main
	.globl	main
	.p2align	2
	.type	main,%function
	.code	16                              @ @main
	.thumb_func
main:
.Lfunc_begin5:
	.loc	2 73 0 is_stmt 1                @ main.c:73:0
	.fnstart
	.cfi_startproc
@ %bb.0:
	.save	{r7, lr}
	push	{r7, lr}
	.cfi_def_cfa_offset 8
	.cfi_offset lr, -4
	.cfi_offset r7, -8
	.pad	#8
	sub	sp, #8
	.cfi_def_cfa_offset 16
	movs	r0, #0
	str	r0, [sp, #4]
.Ltmp16:
	.loc	2 74 2 prologue_end             @ main.c:74:2
	bl	RCC_Config
	.loc	2 75 2                          @ main.c:75:2
	bl	GPIO_Config
	.loc	2 76 2                          @ main.c:76:2
	bl	TIM_Config
	.loc	2 77 2                          @ main.c:77:2
	b	.LBB5_1
.LBB5_1:                                @ =>This Inner Loop Header: Depth=1
.Ltmp17:
	.loc	2 78 17                         @ main.c:78:17
	bl	SPI_Slave_Receive
	.loc	2 78 15 is_stmt 0               @ main.c:78:15
	movw	r1, :lower16:DataReceive
	movt	r1, :upper16:DataReceive
	strb	r0, [r1]
.Ltmp18:
	.loc	2 77 2 is_stmt 1                @ main.c:77:2
	b	.LBB5_1
.Ltmp19:
.Lfunc_end5:
	.size	main, .Lfunc_end5-main
	.cfi_endproc
	.cantunwind
	.fnend
                                        @ -- End function
	.hidden	DataReceive                     @ @DataReceive
	.type	DataReceive,%object
	.section	.bss.DataReceive,"aw",%nobits
	.globl	DataReceive
DataReceive:
	.byte	0                               @ 0x0
	.size	DataReceive, 1

	.type	__ARM_use_no_argv,%object       @ @__ARM_use_no_argv
	.section	.ARM.use_no_argv,"awR",%progbits,unique,1
	.globl	__ARM_use_no_argv
	.p2align	2, 0x0
__ARM_use_no_argv:
	.long	1                               @ 0x1
	.size	__ARM_use_no_argv, 4

	.file	5 "C:/Users/LENOVO/AppData/Local/Arm/Packs/Keil/STM32F1xx_DFP/2.4.1/Device/StdPeriph_Driver/inc" "stm32f10x_tim.h"
	.section	".note.GNU-stack","",%progbits
	.eabi_attribute	30, 6	@ Tag_ABI_optimization_goals
	.ARM_attribute	16, 1	@ Tag_AV_eba